; Function Attrs: mustprogress nofree norecurse nosync nounwind willreturn memory(argmem: read) uwtable
define dso_local { <2 x float>, <2 x float> } @_ZNK14btCapsuleShape37localGetSupportingVertexWithoutMarginERK9btVector3(ptr noundef nonnull readonly align 8 captures(none) dereferenceable(76) %0, ptr noundef nonnull readonly align 4 captures(none) dereferenceable(16) %1) unnamed_addr #3 align 2 {
  %3 = alloca %class.btVector3, align 4
  %4 = alloca %class.btVector3, align 4
  %.sroa.047.0.copyload = load float, ptr %1, align 4
  %.sroa.9.0..sroa_idx = getelementptr inbounds nuw i8, ptr %1, i64 4
  %.sroa.9.0.copyload = load float, ptr %.sroa.9.0..sroa_idx, align 4
  %.sroa.15.0..sroa_idx = getelementptr inbounds nuw i8, ptr %1, i64 8
  %.sroa.15.0.copyload = load float, ptr %.sroa.15.0..sroa_idx, align 4
  %5 = fmul float %.sroa.9.0.copyload, %.sroa.9.0.copyload
  %6 = tail call float @llvm.fmuladd.f32(float %.sroa.047.0.copyload, float %.sroa.047.0.copyload, float %5)
  %7 = tail call noundef float @llvm.fmuladd.f32(float %.sroa.15.0.copyload, float %.sroa.15.0.copyload, float %6)
  %8 = fcmp olt float %7, 0x3F1A36E2E0000000
  br i1 %8, label %14, label %9

9:                                                ; preds = %2
  %sqrt = tail call float @llvm.sqrt.f32(float %7)
  %10 = fdiv float 1.000000e+00, %sqrt
  %11 = fmul float %.sroa.047.0.copyload, %10
  %12 = fmul float %.sroa.9.0.copyload, %10
  %13 = fmul float %.sroa.15.0.copyload, %10
  br label %14

14:                                               ; preds = %2, %9
  %.sroa.047.0 = phi float [ %11, %9 ], [ 1.000000e+00, %2 ]
  %.sroa.9.0 = phi float [ %12, %9 ], [ 0.000000e+00, %2 ]
  %.sroa.15.0 = phi float [ %13, %9 ], [ 0.000000e+00, %2 ]
  call void @llvm.lifetime.start.p0(i64 16, ptr nonnull %3) #16
  %15 = getelementptr inbounds nuw i8, ptr %3, i64 4
  %16 = getelementptr inbounds nuw i8, ptr %3, i64 8
  %17 = getelementptr inbounds nuw i8, ptr %0, i64 48
  %18 = getelementptr inbounds nuw i8, ptr %0, i64 72
  call void @llvm.memset.p0.i64(ptr noundef nonnull align 4 dereferenceable(16) %3, i8 0, i64 16, i1 false)
  %19 = load i32, ptr %18, align 8, !tbaa !17
  %20 = sext i32 %19 to i64
  %21 = getelementptr inbounds float, ptr %17, i64 %20
  %22 = load float, ptr %21, align 4, !tbaa !19
  %23 = getelementptr inbounds float, ptr %3, i64 %20
  store float %22, ptr %23, align 4, !tbaa !19
  %.sroa.0.0.copyload = load float, ptr %3, align 4
  %.sroa.8.0.copyload = load float, ptr %15, align 4
  %.sroa.10.0.copyload = load float, ptr %16, align 4
  %24 = fmul float %.sroa.9.0, %.sroa.8.0.copyload
  %25 = tail call float @llvm.fmuladd.f32(float %.sroa.047.0, float %.sroa.0.0.copyload, float %24)
  %26 = tail call noundef float @llvm.fmuladd.f32(float %.sroa.15.0, float %.sroa.10.0.copyload, float %25)
  %27 = fcmp ogt float %26, 0xC3ABC16D60000000
  br i1 %27, label %28, label %30

28:                                               ; preds = %14
  %29 = getelementptr inbounds nuw i8, ptr %3, i64 12
  %.sroa.12.0.copyload = load float, ptr %29, align 4, !tbaa !20
  %.sroa.060.0.vec.insert63 = insertelement <2 x float> poison, float %.sroa.0.0.copyload, i64 0
  %.sroa.060.4.vec.insert67 = insertelement <2 x float> %.sroa.060.0.vec.insert63, float %.sroa.8.0.copyload, i64 1
  %.sroa.7.8.vec.insert72 = insertelement <2 x float> poison, float %.sroa.10.0.copyload, i64 0
  %.sroa.7.12.vec.insert76 = insertelement <2 x float> %.sroa.7.8.vec.insert72, float %.sroa.12.0.copyload, i64 1
  br label %30

30:                                               ; preds = %28, %14
  %.sroa.060.0 = phi <2 x float> [ %.sroa.060.4.vec.insert67, %28 ], [ zeroinitializer, %14 ]
  %.sroa.7.0 = phi <2 x float> [ %.sroa.7.12.vec.insert76, %28 ], [ zeroinitializer, %14 ]
  %.0 = phi float [ %26, %28 ], [ 0xC3ABC16D60000000, %14 ]
  call void @llvm.lifetime.end.p0(i64 16, ptr nonnull %3) #16
  call void @llvm.lifetime.start.p0(i64 16, ptr nonnull %4) #16
  %31 = getelementptr inbounds nuw i8, ptr %4, i64 4
  %32 = getelementptr inbounds nuw i8, ptr %4, i64 8
  %33 = fneg float %22
  %34 = getelementptr inbounds float, ptr %4, i64 %20
  call void @llvm.memset.p0.i64(ptr noundef nonnull align 4 dereferenceable(16) %4, i8 0, i64 16, i1 false)
  store float %33, ptr %34, align 4, !tbaa !19
  %.sroa.0.0.copyload19 = load float, ptr %4, align 4
  %.sroa.8.0.copyload24 = load float, ptr %31, align 4
  %.sroa.10.0.copyload31 = load float, ptr %32, align 4
  %35 = fmul float %.sroa.9.0, %.sroa.8.0.copyload24
  %36 = tail call float @llvm.fmuladd.f32(float %.sroa.047.0, float %.sroa.0.0.copyload19, float %35)
  %37 = tail call noundef float @llvm.fmuladd.f32(float %.sroa.15.0, float %.sroa.10.0.copyload31, float %36)
  %38 = fcmp ogt float %37, %.0
  br i1 %38, label %39, label %41

39:                                               ; preds = %30
  %40 = getelementptr inbounds nuw i8, ptr %4, i64 12
  %.sroa.12.0.copyload38 = load float, ptr %40, align 4, !tbaa !20
  %.sroa.060.0.vec.insert65 = insertelement <2 x float> poison, float %.sroa.0.0.copyload19, i64 0
  %.sroa.060.4.vec.insert69 = insertelement <2 x float> %.sroa.060.0.vec.insert65, float %.sroa.8.0.copyload24, i64 1
  %.sroa.7.8.vec.insert74 = insertelement <2 x float> poison, float %.sroa.10.0.copyload31, i64 0
  %.sroa.7.12.vec.insert78 = insertelement <2 x float> %.sroa.7.8.vec.insert74, float %.sroa.12.0.copyload38, i64 1
  br label %41

41:                                               ; preds = %39, %30
  %.sroa.060.1 = phi <2 x float> [ %.sroa.060.4.vec.insert69, %39 ], [ %.sroa.060.0, %30 ]
  %.sroa.7.1 = phi <2 x float> [ %.sroa.7.12.vec.insert78, %39 ], [ %.sroa.7.0, %30 ]
  call void @llvm.lifetime.end.p0(i64 16, ptr nonnull %4) #16
  %.fca.0.insert = insertvalue { <2 x float>, <2 x float> } poison, <2 x float> %.sroa.060.1, 0
  %.fca.1.insert = insertvalue { <2 x float>, <2 x float> } %.fca.0.insert, <2 x float> %.sroa.7.1, 1
  ret { <2 x float>, <2 x float> } %.fca.1.insert
}